; Function Attrs: mustprogress nounwind uwtable
define hidden noundef zeroext i1 @_ZNK17TenuredGeneration25promotion_attempt_is_safeEm(ptr noundef nonnull align 8 dereferenceable(248) %0, i64 noundef %1) local_unnamed_addr #0 align 2 {
  %3 = getelementptr inbounds i8, ptr %0, i64 216
  %4 = load ptr, ptr %3, align 8
  %5 = getelementptr inbounds i8, ptr %4, i64 16
  %6 = load ptr, ptr %5, align 8
  %7 = getelementptr inbounds i8, ptr %4, i64 8
  %8 = load ptr, ptr %7, align 8
  %9 = ptrtoint ptr %8 to i64
  %10 = ptrtoint ptr %6 to i64
  %11 = sub i64 %9, %10
  %12 = getelementptr inbounds i8, ptr %0, i64 32
  %13 = tail call noundef i64 @_ZNK12VirtualSpace16uncommitted_sizeEv(ptr noundef nonnull align 8 dereferenceable(112) %12) #8
  %14 = add i64 %11, %13
  %15 = getelementptr inbounds i8, ptr %0, i64 240
  %16 = load ptr, ptr %15, align 8
  %17 = getelementptr inbounds i8, ptr %16, i64 20
  %18 = load float, ptr %17, align 4
  %19 = fptoui float %18 to i64
  %20 = icmp uge i64 %14, %19
  %21 = icmp uge i64 %14, %1
  %22 = or i1 %21, %20
  %23 = load volatile ptr, ptr getelementptr inbounds (i8, ptr @_ZN16LogTagSetMappingILN6LogTag4typeE49ELS1_0ELS1_0ELS1_0ELS1_0ELS1_0EE7_tagsetE, i64 48), align 8
  %.not = icmp eq ptr %23, null
  br i1 %.not, label %27, label %24

24:                                               ; preds = %2
  %25 = select i1 %22, ptr @.str.23, ptr @.str.24
  %26 = select i1 %22, ptr @.str.25, ptr @.str.26
  tail call void (ptr, ...) @_ZN7LogImplILN6LogTag4typeE49ELS1_0ELS1_0ELS1_0ELS1_0ELS1_0EE5writeILN8LogLevel4typeE1EEEvPKcz(ptr noundef nonnull @.str.22, ptr noundef nonnull %25, i64 noundef %14, ptr noundef nonnull %26, i64 noundef %19, i64 noundef %1)
  br label %27

27:                                               ; preds = %2, %24
  ret i1 %22
}